; Function Attrs: mustprogress uwtable
define hidden noalias noundef ptr @_Z8and_thenP6tacticS0_(ptr noundef %t1, ptr noundef %t2) local_unnamed_addr #3 personality ptr @__gxx_personality_v0 {
entry:
  %call = tail call noalias noundef ptr @_ZN6memory8allocateEm(i64 noundef 32)
  %m_ref_count.i.i.i = getelementptr inbounds i8, ptr %call, i64 8
  store i32 0, ptr %m_ref_count.i.i.i, align 8
  %m_t1.i.i = getelementptr inbounds i8, ptr %call, i64 16
  store ptr %t1, ptr %m_t1.i.i, align 8
  %tobool.not.i.i.i.i = icmp eq ptr %t1, null
  br i1 %tobool.not.i.i.i.i, label %invoke.cont.i.i, label %if.then.i.i.i.i

if.then.i.i.i.i:                                  ; preds = %entry
  %m_ref_count.i.i.i.i.i = getelementptr inbounds i8, ptr %t1, i64 8
  %0 = load i32, ptr %m_ref_count.i.i.i.i.i, align 8
  %inc.i.i.i.i.i = add i32 %0, 1
  store i32 %inc.i.i.i.i.i, ptr %m_ref_count.i.i.i.i.i, align 8
  br label %invoke.cont.i.i

invoke.cont.i.i:                                  ; preds = %if.then.i.i.i.i, %entry
  %m_t2.i.i = getelementptr inbounds i8, ptr %call, i64 24
  store ptr %t2, ptr %m_t2.i.i, align 8
  %tobool.not.i.i2.i.i = icmp eq ptr %t2, null
  br i1 %tobool.not.i.i2.i.i, label %_ZN17and_then_tacticalC2EP6tacticS1_.exit, label %if.then.i.i3.i.i

if.then.i.i3.i.i:                                 ; preds = %invoke.cont.i.i
  %m_ref_count.i.i.i4.i.i = getelementptr inbounds i8, ptr %t2, i64 8
  %1 = load i32, ptr %m_ref_count.i.i.i4.i.i, align 8
  %inc.i.i.i5.i.i = add i32 %1, 1
  store i32 %inc.i.i.i5.i.i, ptr %m_ref_count.i.i.i4.i.i, align 8
  br label %_ZN17and_then_tacticalC2EP6tacticS1_.exit

_ZN17and_then_tacticalC2EP6tacticS1_.exit:        ; preds = %invoke.cont.i.i, %if.then.i.i3.i.i
  store ptr getelementptr inbounds ({ [25 x ptr] }, ptr @_ZTV17and_then_tactical, i64 0, i32 0, i64 2), ptr %call, align 8
  ret ptr %call
}